; Function Attrs: mustprogress nounwind uwtable
define void @_ZN3gmx21ShellCompletionWriterD2Ev(ptr nocapture noundef nonnull align 8 dereferenceable(8) %0) unnamed_addr #5 align 2 personality ptr @__gxx_personality_v0 {
  %2 = load ptr, ptr %0, align 8
  %.not.i = icmp eq ptr %2, null
  br i1 %.not.i, label %_ZNSt10unique_ptrIN3gmx21ShellCompletionWriter4ImplESt14default_deleteIS2_EED2Ev.exit, label %3

3:                                                ; preds = %1
  %4 = getelementptr inbounds i8, ptr %2, i64 32
  %5 = load ptr, ptr %4, align 8
  %.not.i.i.i.i = icmp eq ptr %5, null
  br i1 %.not.i.i.i.i, label %_ZNKSt14default_deleteIN3gmx21ShellCompletionWriter4ImplEEclEPS2_.exit.i, label %_ZNKSt14default_deleteIN3gmx10TextWriterEEclEPS1_.exit.i.i.i.i

_ZNKSt14default_deleteIN3gmx10TextWriterEEclEPS1_.exit.i.i.i.i: ; preds = %3
  tail call void @_ZN3gmx10TextWriterD1Ev(ptr noundef nonnull align 8 dereferenceable(8) %5) #15
  tail call void @_ZdlPv(ptr noundef nonnull %5) #14
  br label %_ZNKSt14default_deleteIN3gmx21ShellCompletionWriter4ImplEEclEPS2_.exit.i

_ZNKSt14default_deleteIN3gmx21ShellCompletionWriter4ImplEEclEPS2_.exit.i: ; preds = %_ZNKSt14default_deleteIN3gmx10TextWriterEEclEPS1_.exit.i.i.i.i, %3
  store ptr null, ptr %4, align 8
  tail call void @_ZNSt7__cxx1112basic_stringIcSt11char_traitsIcESaIcEED1Ev(ptr noundef nonnull align 8 dereferenceable(32) %2) #15
  tail call void @_ZdlPv(ptr noundef nonnull %2) #14
  br label %_ZNSt10unique_ptrIN3gmx21ShellCompletionWriter4ImplESt14default_deleteIS2_EED2Ev.exit

_ZNSt10unique_ptrIN3gmx21ShellCompletionWriter4ImplESt14default_deleteIS2_EED2Ev.exit: ; preds = %1, %_ZNKSt14default_deleteIN3gmx21ShellCompletionWriter4ImplEEclEPS2_.exit.i
  store ptr null, ptr %0, align 8
  ret void
}